; Function Attrs: mustprogress ssp uwtable
define internal noundef range(i32 0, 2) i32 @_ZN6open3d1t2io12_GLOBAL__N_121ReadAttributeCallbackIdEEiP15t_ply_argument_(ptr noundef %0) #4 personality ptr @__gxx_personality_v0 {
  %2 = alloca double, align 8
  %3 = alloca ptr, align 8
  %4 = alloca i64, align 8
  call void @llvm.lifetime.start.p0(i64 8, ptr nonnull %3) #38
  call void @llvm.lifetime.start.p0(i64 8, ptr nonnull %4) #38
  %5 = call i32 @ply_get_argument_user_data(ptr noundef %0, ptr noundef nonnull %3, ptr noundef nonnull %4)
  %6 = load ptr, ptr %3, align 8, !tbaa !79
  %7 = load i64, ptr %4, align 8, !tbaa !45
  %.val = load ptr, ptr %6, align 8, !tbaa !69
  %8 = getelementptr inbounds nuw %"class.std::shared_ptr", ptr %.val, i64 %7
  %.val23 = load ptr, ptr %8, align 8, !tbaa !145
  %9 = getelementptr inbounds nuw i8, ptr %.val23, i64 56
  %10 = load i64, ptr %9, align 8, !tbaa !143
  %11 = getelementptr inbounds nuw i8, ptr %.val23, i64 48
  %12 = load i64, ptr %11, align 8, !tbaa !142
  %.not = icmp slt i64 %10, %12
  br i1 %.not, label %13, label %_ZN6open3d7utility24CountingProgressReporter6UpdateEl.exit

13:                                               ; preds = %1
  %14 = getelementptr inbounds nuw i8, ptr %.val23, i64 32
  %15 = load ptr, ptr %14, align 8, !tbaa !141
  %16 = getelementptr inbounds nuw i8, ptr %.val23, i64 40
  %17 = load i32, ptr %16, align 8, !tbaa !114
  %18 = sext i32 %17 to i64
  %19 = mul nsw i64 %10, %18
  %20 = getelementptr inbounds nuw i8, ptr %.val23, i64 44
  %21 = load i32, ptr %20, align 4, !tbaa !116
  %22 = sext i32 %21 to i64
  %23 = call double @ply_get_argument_value(ptr noundef %0)
  %24 = getelementptr double, ptr %15, i64 %19
  %25 = getelementptr double, ptr %24, i64 %22
  store double %23, ptr %25, align 8, !tbaa !168
  %.val17 = load ptr, ptr %8, align 8, !tbaa !145
  %26 = getelementptr inbounds nuw i8, ptr %.val17, i64 56
  %27 = load i64, ptr %26, align 8, !tbaa !143
  %28 = add nsw i64 %27, 1
  store i64 %28, ptr %26, align 8, !tbaa !143
  %29 = getelementptr inbounds nuw i8, ptr %.val17, i64 44
  %30 = load i32, ptr %29, align 4, !tbaa !116
  %31 = icmp eq i32 %30, 0
  %32 = srem i64 %28, 1000
  %33 = icmp eq i64 %32, 0
  %or.cond = select i1 %31, i1 %33, i1 false
  br i1 %or.cond, label %34, label %_ZN6open3d7utility24CountingProgressReporter6UpdateEl.exit

34:                                               ; preds = %13
  %35 = load ptr, ptr %3, align 8, !tbaa !79
  %36 = getelementptr inbounds nuw i8, ptr %35, i64 24
  %37 = load ptr, ptr %36, align 8, !tbaa !162
  %38 = getelementptr inbounds nuw i8, ptr %37, i64 16
  %39 = load ptr, ptr %38, align 8, !tbaa !156
  %.not.i.i.not.i = icmp eq ptr %39, null
  br i1 %.not.i.i.not.i, label %_ZN6open3d7utility24CountingProgressReporter6UpdateEl.exit, label %40

40:                                               ; preds = %34
  %41 = getelementptr inbounds nuw i8, ptr %37, i64 40
  store i64 %28, ptr %41, align 8, !tbaa !809
  %42 = getelementptr inbounds nuw i8, ptr %37, i64 32
  %43 = load i64, ptr %42, align 8, !tbaa !160
  %44 = icmp sgt i64 %43, 0
  br i1 %44, label %45, label %_ZN6open3d7utility24CountingProgressReporter10CallUpdateEd.exit.i

45:                                               ; preds = %40
  %46 = icmp slt i64 %28, %43
  br i1 %46, label %47, label %_ZN6open3d7utility24CountingProgressReporter10CallUpdateEd.exit.i

47:                                               ; preds = %45
  %48 = sitofp i64 %28 to double
  %49 = fmul double %48, 1.000000e+02
  %50 = uitofp nneg i64 %43 to double
  %51 = fdiv double %49, %50
  br label %_ZN6open3d7utility24CountingProgressReporter10CallUpdateEd.exit.i

_ZN6open3d7utility24CountingProgressReporter10CallUpdateEd.exit.i: ; preds = %47, %45, %40
  %.0.i = phi double [ %51, %47 ], [ 0.000000e+00, %40 ], [ 1.000000e+02, %45 ]
  call void @llvm.lifetime.start.p0(i64 8, ptr nonnull %2)
  store double %.0.i, ptr %2, align 8, !tbaa !168
  %52 = getelementptr inbounds nuw i8, ptr %37, i64 24
  %53 = load ptr, ptr %52, align 8, !tbaa !158
  %54 = call noundef zeroext i1 %53(ptr noundef nonnull align 8 dereferenceable(48) %37, ptr noundef nonnull align 8 dereferenceable(8) %2)
  call void @llvm.lifetime.end.p0(i64 8, ptr nonnull %2)
  br label %_ZN6open3d7utility24CountingProgressReporter6UpdateEl.exit

_ZN6open3d7utility24CountingProgressReporter6UpdateEl.exit: ; preds = %_ZN6open3d7utility24CountingProgressReporter10CallUpdateEd.exit.i, %34, %13, %1
  %.0 = phi i32 [ 0, %1 ], [ 1, %13 ], [ 1, %34 ], [ 1, %_ZN6open3d7utility24CountingProgressReporter10CallUpdateEd.exit.i ]
  call void @llvm.lifetime.end.p0(i64 8, ptr nonnull %4) #38
  call void @llvm.lifetime.end.p0(i64 8, ptr nonnull %3) #38
  ret i32 %.0
}